target datalayout = "e-m:e-p270:32:32-p271:32:32-p272:64:64-i64:64-i128:128-f80:128-n8:16:32:64-S128"
target triple = "x86_64-pc-linux-gnu"

%"class.mu::ParserCallback" = type <{ ptr, i32, i32, i32, i32, i32, i8, [3 x i8] }>
%"struct.mu::CbWithUserData" = type { ptr, ptr }

; Function Attrs: mustprogress uwtable
define void @_ZN2mu14ParserCallbackC2EPFdPvPKdiES1_b(ptr noundef nonnull align 8 dereferenceable(32) %0, ptr noundef %1, ptr noundef %2, i1 noundef zeroext %3) unnamed_addr #6 align 2 {
  %5 = alloca ptr, align 8
  %6 = alloca ptr, align 8
  %7 = alloca ptr, align 8
  %8 = alloca i8, align 1
  store ptr %0, ptr %5, align 8, !tbaa !32
  store ptr %1, ptr %6, align 8, !tbaa !34
  store ptr %2, ptr %7, align 8, !tbaa !34
  %9 = zext i1 %3 to i8
  store i8 %9, ptr %8, align 1, !tbaa !35
  %10 = load ptr, ptr %5, align 8
  %11 = getelementptr inbounds nuw %"class.mu::ParserCallback", ptr %10, i32 0, i32 0
  %12 = call noalias noundef nonnull ptr @_Znwm(i64 noundef 16) #18
  %13 = getelementptr inbounds nuw %"struct.mu::CbWithUserData", ptr %12, i32 0, i32 0
  %14 = load ptr, ptr %6, align 8, !tbaa !34
  store ptr %14, ptr %13, align 16, !tbaa !54
  %15 = getelementptr inbounds nuw %"struct.mu::CbWithUserData", ptr %12, i32 0, i32 1
  %16 = load ptr, ptr %7, align 8, !tbaa !34
  store ptr %16, ptr %15, align 8, !tbaa !56
  store ptr %12, ptr %11, align 8, !tbaa !37
  %17 = getelementptr inbounds nuw %"class.mu::ParserCallback", ptr %10, i32 0, i32 1
  store i32 24576, ptr %17, align 8, !tbaa !43
  %18 = getelementptr inbounds nuw %"class.mu::ParserCallback", ptr %10, i32 0, i32 2
  store i32 -1, ptr %18, align 4, !tbaa !44
  %19 = getelementptr inbounds nuw %"class.mu::ParserCallback", ptr %10, i32 0, i32 3
  store i32 2, ptr %19, align 8, !tbaa !45
  %20 = getelementptr inbounds nuw %"class.mu::ParserCallback", ptr %10, i32 0, i32 4
  store i32 26, ptr %20, align 4, !tbaa !46
  %21 = getelementptr inbounds nuw %"class.mu::ParserCallback", ptr %10, i32 0, i32 5
  store i32 1, ptr %21, align 8, !tbaa !47
  %22 = getelementptr inbounds nuw %"class.mu::ParserCallback", ptr %10, i32 0, i32 6
  %23 = load i8, ptr %8, align 1, !tbaa !35, !range !48, !noundef !49
  %24 = trunc i8 %23 to i1
  %25 = zext i1 %24 to i8
  store i8 %25, ptr %22, align 4, !tbaa !50
  ret void
}